; ModuleID = '46/1302.c'
source_filename = "46/1302.c"
target datalayout = "e-m:e-p270:32:32-p271:32:32-p272:64:64-i64:64-f80:128-n8:16:32:64-S128"
target triple = "x86_64-pc-linux-gnu"

@.str = private unnamed_addr constant [6 x i8] c"%d %d\00", align 1
@.str.1 = private unnamed_addr constant [3 x i8] c"%d\00", align 1
@.str.2 = private unnamed_addr constant [4 x i8] c"%d\0A\00", align 1

; Function Attrs: noinline nounwind uwtable
define dso_local i32 @main() #0 {
  %1 = alloca i32, align 4
  %2 = alloca i32, align 4
  %3 = alloca i32, align 4
  %4 = alloca i32, align 4
  %5 = alloca i32, align 4
  %6 = alloca i32, align 4
  %7 = alloca i32, align 4
  %8 = alloca [100 x [100 x i32]], align 16
  %9 = alloca i32, align 4
  %10 = alloca i32, align 4
  %11 = alloca i32, align 4
  %12 = alloca i32, align 4
  %13 = alloca i32, align 4
  %14 = alloca i32, align 4
  store i32 0, i32* %1, align 4
  %15 = call i32 (i8*, ...) @__isoc99_scanf(i8* getelementptr inbounds ([6 x i8], [6 x i8]* @.str, i64 0, i64 0), i32* %2, i32* %3)
  store i32 0, i32* %9, align 4
  br label %16

16:                                               ; preds = %37, %0
  %17 = load i32, i32* %9, align 4
  %18 = load i32, i32* %2, align 4
  %19 = icmp slt i32 %17, %18
  br i1 %19, label %20, label %40

20:                                               ; preds = %16
  store i32 0, i32* %10, align 4
  br label %21

21:                                               ; preds = %33, %20
  %22 = load i32, i32* %10, align 4
  %23 = load i32, i32* %3, align 4
  %24 = icmp slt i32 %22, %23
  br i1 %24, label %25, label %36

25:                                               ; preds = %21
  %26 = load i32, i32* %9, align 4
  %27 = sext i32 %26 to i64
  %28 = getelementptr inbounds [100 x [100 x i32]], [100 x [100 x i32]]* %8, i64 0, i64 %27
  %29 = load i32, i32* %10, align 4
  %30 = sext i32 %29 to i64
  %31 = getelementptr inbounds [100 x i32], [100 x i32]* %28, i64 0, i64 %30
  %32 = call i32 (i8*, ...) @__isoc99_scanf(i8* getelementptr inbounds ([3 x i8], [3 x i8]* @.str.1, i64 0, i64 0), i32* %31)
  br label %33

33:                                               ; preds = %25
  %34 = load i32, i32* %10, align 4
  %35 = add nsw i32 %34, 1
  store i32 %35, i32* %10, align 4
  br label %21

36:                                               ; preds = %21
  br label %37

37:                                               ; preds = %36
  %38 = load i32, i32* %9, align 4
  %39 = add nsw i32 %38, 1
  store i32 %39, i32* %9, align 4
  br label %16

40:                                               ; preds = %16
  store i32 0, i32* %6, align 4
  %41 = load i32, i32* %3, align 4
  %42 = sub nsw i32 %41, 1
  store i32 %42, i32* %7, align 4
  store i32 0, i32* %4, align 4
  %43 = load i32, i32* %2, align 4
  %44 = sub nsw i32 %43, 1
  store i32 %44, i32* %5, align 4
  br label %45

45:                                               ; preds = %129, %40
  %46 = load i32, i32* %5, align 4
  %47 = load i32, i32* %4, align 4
  %48 = sub nsw i32 %46, %47
  %49 = icmp sgt i32 %48, 0
  br i1 %49, label %50, label %55

50:                                               ; preds = %45
  %51 = load i32, i32* %7, align 4
  %52 = load i32, i32* %6, align 4
  %53 = sub nsw i32 %51, %52
  %54 = icmp sgt i32 %53, 0
  br label %55

55:                                               ; preds = %50, %45
  %56 = phi i1 [ false, %45 ], [ %54, %50 ]
  br i1 %56, label %57, label %138

57:                                               ; preds = %55
  %58 = load i32, i32* %6, align 4
  store i32 %58, i32* %11, align 4
  br label %59

59:                                               ; preds = %72, %57
  %60 = load i32, i32* %11, align 4
  %61 = load i32, i32* %7, align 4
  %62 = icmp slt i32 %60, %61
  br i1 %62, label %63, label %75

63:                                               ; preds = %59
  %64 = load i32, i32* %4, align 4
  %65 = sext i32 %64 to i64
  %66 = getelementptr inbounds [100 x [100 x i32]], [100 x [100 x i32]]* %8, i64 0, i64 %65
  %67 = load i32, i32* %11, align 4
  %68 = sext i32 %67 to i64
  %69 = getelementptr inbounds [100 x i32], [100 x i32]* %66, i64 0, i64 %68
  %70 = load i32, i32* %69, align 4
  %71 = call i32 (i8*, ...) @printf(i8* getelementptr inbounds ([4 x i8], [4 x i8]* @.str.2, i64 0, i64 0), i32 %70)
  br label %72

72:                                               ; preds = %63
  %73 = load i32, i32* %11, align 4
  %74 = add nsw i32 %73, 1
  store i32 %74, i32* %11, align 4
  br label %59

75:                                               ; preds = %59
  %76 = load i32, i32* %4, align 4
  store i32 %76, i32* %13, align 4
  br label %77

77:                                               ; preds = %90, %75
  %78 = load i32, i32* %13, align 4
  %79 = load i32, i32* %5, align 4
  %80 = icmp slt i32 %78, %79
  br i1 %80, label %81, label %93

81:                                               ; preds = %77
  %82 = load i32, i32* %13, align 4
  %83 = sext i32 %82 to i64
  %84 = getelementptr inbounds [100 x [100 x i32]], [100 x [100 x i32]]* %8, i64 0, i64 %83
  %85 = load i32, i32* %7, align 4
  %86 = sext i32 %85 to i64
  %87 = getelementptr inbounds [100 x i32], [100 x i32]* %84, i64 0, i64 %86
  %88 = load i32, i32* %87, align 4
  %89 = call i32 (i8*, ...) @printf(i8* getelementptr inbounds ([4 x i8], [4 x i8]* @.str.2, i64 0, i64 0), i32 %88)
  br label %90

90:                                               ; preds = %81
  %91 = load i32, i32* %13, align 4
  %92 = add nsw i32 %91, 1
  store i32 %92, i32* %13, align 4
  br label %77

93:                                               ; preds = %77
  %94 = load i32, i32* %7, align 4
  store i32 %94, i32* %12, align 4
  br label %95

95:                                               ; preds = %108, %93
  %96 = load i32, i32* %12, align 4
  %97 = load i32, i32* %6, align 4
  %98 = icmp sgt i32 %96, %97
  br i1 %98, label %99, label %111

99:                                               ; preds = %95
  %100 = load i32, i32* %5, align 4
  %101 = sext i32 %100 to i64
  %102 = getelementptr inbounds [100 x [100 x i32]], [100 x [100 x i32]]* %8, i64 0, i64 %101
  %103 = load i32, i32* %12, align 4
  %104 = sext i32 %103 to i64
  %105 = getelementptr inbounds [100 x i32], [100 x i32]* %102, i64 0, i64 %104
  %106 = load i32, i32* %105, align 4
  %107 = call i32 (i8*, ...) @printf(i8* getelementptr inbounds ([4 x i8], [4 x i8]* @.str.2, i64 0, i64 0), i32 %106)
  br label %108

108:                                              ; preds = %99
  %109 = load i32, i32* %12, align 4
  %110 = add nsw i32 %109, -1
  store i32 %110, i32* %12, align 4
  br label %95

111:                                              ; preds = %95
  %112 = load i32, i32* %5, align 4
  store i32 %112, i32* %14, align 4
  br label %113

113:                                              ; preds = %126, %111
  %114 = load i32, i32* %14, align 4
  %115 = load i32, i32* %4, align 4
  %116 = icmp sgt i32 %114, %115
  br i1 %116, label %117, label %129

117:                                              ; preds = %113
  %118 = load i32, i32* %14, align 4
  %119 = sext i32 %118 to i64
  %120 = getelementptr inbounds [100 x [100 x i32]], [100 x [100 x i32]]* %8, i64 0, i64 %119
  %121 = load i32, i32* %6, align 4
  %122 = sext i32 %121 to i64
  %123 = getelementptr inbounds [100 x i32], [100 x i32]* %120, i64 0, i64 %122
  %124 = load i32, i32* %123, align 4
  %125 = call i32 (i8*, ...) @printf(i8* getelementptr inbounds ([4 x i8], [4 x i8]* @.str.2, i64 0, i64 0), i32 %124)
  br label %126

126:                                              ; preds = %117
  %127 = load i32, i32* %14, align 4
  %128 = add nsw i32 %127, -1
  store i32 %128, i32* %14, align 4
  br label %113

129:                                              ; preds = %113
  %130 = load i32, i32* %6, align 4
  %131 = add nsw i32 %130, 1
  store i32 %131, i32* %6, align 4
  %132 = load i32, i32* %7, align 4
  %133 = add nsw i32 %132, -1
  store i32 %133, i32* %7, align 4
  %134 = load i32, i32* %4, align 4
  %135 = add nsw i32 %134, 1
  store i32 %135, i32* %4, align 4
  %136 = load i32, i32* %5, align 4
  %137 = add nsw i32 %136, -1
  store i32 %137, i32* %5, align 4
  br label %45

138:                                              ; preds = %55
  %139 = load i32, i32* %5, align 4
  %140 = load i32, i32* %4, align 4
  %141 = sub nsw i32 %139, %140
  %142 = icmp eq i32 %141, 0
  br i1 %142, label %143, label %167

143:                                              ; preds = %138
  %144 = load i32, i32* %7, align 4
  %145 = load i32, i32* %6, align 4
  %146 = sub nsw i32 %144, %145
  %147 = icmp ne i32 %146, 0
  br i1 %147, label %148, label %167

148:                                              ; preds = %143
  %149 = load i32, i32* %6, align 4
  store i32 %149, i32* %9, align 4
  br label %150

150:                                              ; preds = %163, %148
  %151 = load i32, i32* %9, align 4
  %152 = load i32, i32* %7, align 4
  %153 = icmp sle i32 %151, %152
  br i1 %153, label %154, label %166

154:                                              ; preds = %150
  %155 = load i32, i32* %4, align 4
  %156 = sext i32 %155 to i64
  %157 = getelementptr inbounds [100 x [100 x i32]], [100 x [100 x i32]]* %8, i64 0, i64 %156
  %158 = load i32, i32* %9, align 4
  %159 = sext i32 %158 to i64
  %160 = getelementptr inbounds [100 x i32], [100 x i32]* %157, i64 0, i64 %159
  %161 = load i32, i32* %160, align 4
  %162 = call i32 (i8*, ...) @printf(i8* getelementptr inbounds ([4 x i8], [4 x i8]* @.str.2, i64 0, i64 0), i32 %161)
  br label %163

163:                                              ; preds = %154
  %164 = load i32, i32* %9, align 4
  %165 = add nsw i32 %164, 1
  store i32 %165, i32* %9, align 4
  br label %150

166:                                              ; preds = %150
  br label %167

167:                                              ; preds = %166, %143, %138
  %168 = load i32, i32* %7, align 4
  %169 = load i32, i32* %6, align 4
  %170 = sub nsw i32 %168, %169
  %171 = icmp eq i32 %170, 0
  br i1 %171, label %172, label %196

172:                                              ; preds = %167
  %173 = load i32, i32* %5, align 4
  %174 = load i32, i32* %4, align 4
  %175 = sub nsw i32 %173, %174
  %176 = icmp ne i32 %175, 0
  br i1 %176, label %177, label %196

177:                                              ; preds = %172
  %178 = load i32, i32* %4, align 4
  store i32 %178, i32* %10, align 4
  br label %179

179:                                              ; preds = %192, %177
  %180 = load i32, i32* %10, align 4
  %181 = load i32, i32* %5, align 4
  %182 = icmp sle i32 %180, %181
  br i1 %182, label %183, label %195

183:                                              ; preds = %179
  %184 = load i32, i32* %10, align 4
  %185 = sext i32 %184 to i64
  %186 = getelementptr inbounds [100 x [100 x i32]], [100 x [100 x i32]]* %8, i64 0, i64 %185
  %187 = load i32, i32* %6, align 4
  %188 = sext i32 %187 to i64
  %189 = getelementptr inbounds [100 x i32], [100 x i32]* %186, i64 0, i64 %188
  %190 = load i32, i32* %189, align 4
  %191 = call i32 (i8*, ...) @printf(i8* getelementptr inbounds ([4 x i8], [4 x i8]* @.str.2, i64 0, i64 0), i32 %190)
  br label %192

192:                                              ; preds = %183
  %193 = load i32, i32* %10, align 4
  %194 = add nsw i32 %193, 1
  store i32 %194, i32* %10, align 4
  br label %179

195:                                              ; preds = %179
  br label %196

196:                                              ; preds = %195, %172, %167
  %197 = load i32, i32* %7, align 4
  %198 = load i32, i32* %6, align 4
  %199 = sub nsw i32 %197, %198
  %200 = icmp eq i32 %199, 0
  br i1 %200, label %201, label %215

201:                                              ; preds = %196
  %202 = load i32, i32* %5, align 4
  %203 = load i32, i32* %4, align 4
  %204 = sub nsw i32 %202, %203
  %205 = icmp eq i32 %204, 0
  br i1 %205, label %206, label %215

206:                                              ; preds = %201
  %207 = load i32, i32* %4, align 4
  %208 = sext i32 %207 to i64
  %209 = getelementptr inbounds [100 x [100 x i32]], [100 x [100 x i32]]* %8, i64 0, i64 %208
  %210 = load i32, i32* %6, align 4
  %211 = sext i32 %210 to i64
  %212 = getelementptr inbounds [100 x i32], [100 x i32]* %209, i64 0, i64 %211
  %213 = load i32, i32* %212, align 4
  %214 = call i32 (i8*, ...) @printf(i8* getelementptr inbounds ([4 x i8], [4 x i8]* @.str.2, i64 0, i64 0), i32 %213)
  br label %215

215:                                              ; preds = %206, %201, %196
  ret i32 0
}

declare dso_local i32 @__isoc99_scanf(i8*, ...) #1

declare dso_local i32 @printf(i8*, ...) #1


!llvm.module.flags = !{!0}
!llvm.ident = !{!1}

!0 = !{i32 1, !"wchar_size", i32 4}
!1 = !{!"clang version 10.0.0-4ubuntu1 "}
